ccopy_reg
_reconstructor
p1
(cnupic.frameworks.opf.clamodel
CLAModel
p2
c__builtin__
object
p3
NtRp4
(dp5
S'_CLAModel__numRunCalls'
p6
I2100
sS'_predictedFieldIdx'
p7
I0
sS'_minLikelihoodThreshold'
p8
F0.0001
sS'_CLAModel__finishedLearning'
p9
I00
sS'_Model__inferenceType'
p10
S'TemporalMultiStep'
p11
sS'_Model__inferenceArgs'
p12
(dp13
S'predictedField'
p14
S'Input'
p15
ssS'_netInfo'
p16
g1
(cnupic.frameworks.opf.clamodel
NetworkInfo
p17
g3
NtRp18
(dp19
S'net'
p20
NsS'statsCollectors'
p21
(lp22
sbsS'_hasCL'
p23
I01
sS'_hasSP'
p24
I01
sS'_classifierInputEncoder'
p25
g1
(cnupic.encoders.scalar
ScalarEncoder
p26
g3
NtRp27
(dp28
S'maxval'
p29
F0.32000000000000001
sS'_bucketValues'
p30
NsS'encoders'
p31
NsS'nInternal'
p32
I255
sS'name'
p33
S'_classifierInput'
p34
sS'minval'
p35
F-0.46000000000000002
sS'_topDownValues'
p36
NsS'verbosity'
p37
I0
sS'clipInput'
p38
I01
sS'_flattenedEncoderList'
p39
(lp40
g27
asS'n'
I275
sS'padding'
p41
I10
sS'range'
p42
F0.78307086614173227
sS'periodic'
p43
I00
sS'radius'
p44
F0.064488188976377953
sS'w'
I21
sS'_topDownMappingM'
p45
NsS'halfwidth'
p46
I10
sS'resolution'
p47
F0.0030708661417322837
sS'rangeInternal'
p48
F0.78000000000000003
sbsS'_CLAModel__tpLearningEnabled'
p49
I01
sS'_Model__learningEnabled'
p50
I01
sS'_Model__inferenceEnabled'
p51
I01
sS'_anomalyInst'
p52
g1
(cnupic.algorithms.anomaly
Anomaly
p53
g3
NtRp54
(dp55
S'_movingAverage'
p56
NsS'_mode'
p57
S'pure'
p58
sS'_binaryThreshold'
p59
NsbsS'_CLAModel__trainSPNetOnlyIfRequested'
p60
I00
sS'_numPredictions'
p61
I2100
sS'_maxPredictionsPerStep'
p62
I8
sS'_input'
p63
(dp64
S'timestamp'
p65
cdatetime
datetime
p66
(S'\x07\xe9\x0b\x01\x03\x00\x00\x00\x00\x00'
tRp67
sg15
F-0.112
ssS'_CLAModel__spLearningEnabled'
p68
I01
sS'_predictedFieldName'
p69
g15
sS'_hasTP'
p70
I01
sS'_numFields'
p71
I1
sS'_CLAModel__restoringFromV1'
p72
I00
sb.